; Function Attrs: cold nofree noreturn nounwind uwtable
define internal void @clar_abort(ptr noundef readonly captures(none) %0, ...) unnamed_addr #5 {
  %2 = alloca [1 x %struct.__va_list_tag], align 16
  call void @llvm.lifetime.start.p0(i64 24, ptr nonnull %2) #31
  call void @llvm.va_start.p0(ptr nonnull %2)
  call fastcc void @clar_print_onabortv(ptr noundef %0, ptr noundef %2)
  call void @llvm.va_end.p0(ptr nonnull %2)
  call void @exit(i32 noundef -1) #34
  unreachable
}